target datalayout = "e-m:e-p270:32:32-p271:32:32-p272:64:64-i64:64-i128:128-f80:128-n8:16:32:64-S128"
target triple = "x86_64-unknown-linux-gnu"

%class.btMultiBodyPoint2Point = type { %class.btMultiBodyConstraint, ptr, ptr, %class.btVector3, %class.btVector3 }
%class.btMultiBodyConstraint = type { ptr, ptr, ptr, i32, i32, i32, i32, i32, i32, i32, i8, i32, float, %class.btAlignedObjectArray }
%class.btAlignedObjectArray = type <{ %class.btAlignedAllocator, [3 x i8], i32, i32, [4 x i8], ptr, i8, [7 x i8] }>
%class.btAlignedAllocator = type { i8 }
%class.btVector3 = type { [4 x float] }
%struct.btMultibodyLink = type { float, %class.btVector3, i32, %class.btQuaternion, %class.btVector3, %class.btVector3, %struct.btSpatialMotionVector, %struct.btSpatialMotionVector, [6 x %struct.btSpatialMotionVector], i32, i32, %class.btQuaternion, %class.btVector3, %class.btQuaternion, %class.btVector3, %class.btVector3, %class.btVector3, %class.btVector3, %class.btVector3, [7 x float], [7 x float], [6 x float], ptr, i32, i32, i32, i32, ptr, %class.btTransform, ptr, ptr, ptr, float, float, float, float, float, float }
%struct.btSpatialMotionVector = type { %class.btVector3, %class.btVector3 }
%class.btQuaternion = type { %class.btQuadWord }
%class.btQuadWord = type { [4 x float] }
%class.btTransform = type { %class.btMatrix3x3, %class.btVector3 }
%class.btMatrix3x3 = type { [3 x %class.btVector3] }
%class.btCollisionObject = type <{ ptr, %class.btTransform, %class.btTransform, %class.btVector3, %class.btVector3, %class.btVector3, i32, float, ptr, ptr, ptr, ptr, i32, i32, i32, i32, i32, float, float, float, float, float, float, float, i32, [4 x i8], ptr, i32, i32, i32, float, float, float, i32, [4 x i8], %class.btAlignedObjectArray.0, i32, %class.btVector3, [4 x i8] }>
%class.btAlignedObjectArray.0 = type <{ %class.btAlignedAllocator.1, [3 x i8], i32, i32, [4 x i8], ptr, i8, [7 x i8] }>
%class.btAlignedAllocator.1 = type { i8 }
%class.btMultiBody = type { ptr, ptr, ptr, %class.btVector3, %class.btVector3, %class.btQuaternion, %class.btQuaternion, float, %class.btVector3, %class.btVector3, %class.btVector3, %class.btVector3, %class.btVector3, [4 x i8], %class.btAlignedObjectArray.8, %class.btAlignedObjectArray, %class.btAlignedObjectArray, %class.btAlignedObjectArray, %class.btAlignedObjectArray.12, %class.btAlignedObjectArray.16, %class.btMatrix3x3, %class.btMatrix3x3, %class.btMatrix3x3, %class.btMatrix3x3, i8, i8, i8, i8, i8, float, float, float, ptr, i32, i32, i32, float, float, i8, float, float, i8, i8, i32, i32, i8, i8, i8, i8 }
%class.btAlignedObjectArray.8 = type <{ %class.btAlignedAllocator.9, [3 x i8], i32, i32, [4 x i8], ptr, i8, [7 x i8] }>
%class.btAlignedAllocator.9 = type { i8 }
%class.btAlignedObjectArray.12 = type <{ %class.btAlignedAllocator.13, [3 x i8], i32, i32, [4 x i8], ptr, i8, [7 x i8] }>
%class.btAlignedAllocator.13 = type { i8 }
%class.btAlignedObjectArray.16 = type <{ %class.btAlignedAllocator.17, [3 x i8], i32, i32, [4 x i8], ptr, i8, [7 x i8] }>
%class.btAlignedAllocator.17 = type { i8 }

; Function Attrs: mustprogress nounwind uwtable
define linkonce_odr dso_local noundef nonnull align 8 dereferenceable(688) ptr @_ZN20btAlignedObjectArrayI15btMultibodyLinkEixEi(ptr noundef nonnull align 8 dereferenceable(25) %this, i32 noundef %n) #1 comdat align 2 {
entry:
  %this.addr = alloca ptr, align 8
  %n.addr = alloca i32, align 4
  store ptr %this, ptr %this.addr, align 8
  store i32 %n, ptr %n.addr, align 4
  %this1 = load ptr, ptr %this.addr, align 8
  %m_data = getelementptr inbounds %class.btAlignedObjectArray.8, ptr %this1, i32 0, i32 5
  %0 = load ptr, ptr %m_data, align 8
  %1 = load i32, ptr %n.addr, align 4
  %idxprom = sext i32 %1 to i64
  %arrayidx = getelementptr inbounds %struct.btMultibodyLink, ptr %0, i64 %idxprom
  ret ptr %arrayidx
}

; Function Attrs: mustprogress uwtable
define linkonce_odr dso_local noundef nonnull align 8 dereferenceable(688) ptr @_ZN11btMultiBody7getLinkEi(ptr noundef nonnull align 8 dereferenceable(640) %this, i32 noundef %index) #2 comdat align 2 {
entry:
  %this.addr = alloca ptr, align 8
  %index.addr = alloca i32, align 4
  store ptr %this, ptr %this.addr, align 8
  store i32 %index, ptr %index.addr, align 4
  %this1 = load ptr, ptr %this.addr, align 8
  %m_links = getelementptr inbounds %class.btMultiBody, ptr %this1, i32 0, i32 14
  %0 = load i32, ptr %index.addr, align 4
  %call = call noundef nonnull align 8 dereferenceable(688) ptr @_ZN20btAlignedObjectArrayI15btMultibodyLinkEixEi(ptr noundef nonnull align 8 dereferenceable(25) %m_links, i32 noundef %0)
  ret ptr %call
}

; Function Attrs: mustprogress nounwind uwtable
define linkonce_odr dso_local noundef ptr @_ZN11btMultiBody15getBaseColliderEv(ptr noundef nonnull align 8 dereferenceable(640) %this) #1 comdat align 2 {
entry:
  %this.addr = alloca ptr, align 8
  store ptr %this, ptr %this.addr, align 8
  %this1 = load ptr, ptr %this.addr, align 8
  %m_baseCollider = getelementptr inbounds %class.btMultiBody, ptr %this1, i32 0, i32 1
  %0 = load ptr, ptr %m_baseCollider, align 8
  ret ptr %0
}

; Function Attrs: mustprogress nounwind uwtable
define linkonce_odr dso_local noundef i32 @_ZNK17btCollisionObject12getIslandTagEv(ptr noundef nonnull align 8 dereferenceable(372) %this) #1 comdat align 2 {
entry:
  %this.addr = alloca ptr, align 8
  store ptr %this, ptr %this.addr, align 8
  %this1 = load ptr, ptr %this.addr, align 8
  %m_islandTag1 = getelementptr inbounds %class.btCollisionObject, ptr %this1, i32 0, i32 13
  %0 = load i32, ptr %m_islandTag1, align 4
  ret i32 %0
}

; Function Attrs: mustprogress uwtable
define dso_local noundef i32 @_ZNK22btMultiBodyPoint2Point12getIslandIdBEv(ptr noundef nonnull align 8 dereferenceable(144) %this) unnamed_addr #2 align 2 {
entry:
  %retval = alloca i32, align 4
  %this.addr = alloca ptr, align 8
  %col = alloca ptr, align 8
  store ptr %this, ptr %this.addr, align 8
  %this1 = load ptr, ptr %this.addr, align 8
  %m_rigidBodyB = getelementptr inbounds %class.btMultiBodyPoint2Point, ptr %this1, i32 0, i32 2
  %0 = load ptr, ptr %m_rigidBodyB, align 8
  %tobool = icmp ne ptr %0, null
  br i1 %tobool, label %if.then, label %if.end

if.then:                                          ; preds = %entry
  %m_rigidBodyB2 = getelementptr inbounds %class.btMultiBodyPoint2Point, ptr %this1, i32 0, i32 2
  %1 = load ptr, ptr %m_rigidBodyB2, align 8
  %call = call noundef i32 @_ZNK17btCollisionObject12getIslandTagEv(ptr noundef nonnull align 8 dereferenceable(372) %1)
  store i32 %call, ptr %retval, align 4
  br label %return

if.end:                                           ; preds = %entry
  %m_bodyB = getelementptr inbounds %class.btMultiBodyConstraint, ptr %this1, i32 0, i32 2
  %2 = load ptr, ptr %m_bodyB, align 8
  %tobool3 = icmp ne ptr %2, null
  br i1 %tobool3, label %if.then4, label %if.end24

if.then4:                                         ; preds = %if.end
  %m_linkB = getelementptr inbounds %class.btMultiBodyConstraint, ptr %this1, i32 0, i32 4
  %3 = load i32, ptr %m_linkB, align 4
  %cmp = icmp slt i32 %3, 0
  br i1 %cmp, label %if.then5, label %if.else

if.then5:                                         ; preds = %if.then4
  %m_bodyB6 = getelementptr inbounds %class.btMultiBodyConstraint, ptr %this1, i32 0, i32 2
  %4 = load ptr, ptr %m_bodyB6, align 8
  %call7 = call noundef ptr @_ZN11btMultiBody15getBaseColliderEv(ptr noundef nonnull align 8 dereferenceable(640) %4)
  store ptr %call7, ptr %col, align 8
  %5 = load ptr, ptr %col, align 8
  %tobool8 = icmp ne ptr %5, null
  br i1 %tobool8, label %if.then9, label %if.end11

if.then9:                                         ; preds = %if.then5
  %6 = load ptr, ptr %col, align 8
  %call10 = call noundef i32 @_ZNK17btCollisionObject12getIslandTagEv(ptr noundef nonnull align 8 dereferenceable(372) %6)
  store i32 %call10, ptr %retval, align 4
  br label %return

if.end11:                                         ; preds = %if.then5
  br label %if.end23

if.else:                                          ; preds = %if.then4
  %m_bodyB12 = getelementptr inbounds %class.btMultiBodyConstraint, ptr %this1, i32 0, i32 2
  %7 = load ptr, ptr %m_bodyB12, align 8
  %m_linkB13 = getelementptr inbounds %class.btMultiBodyConstraint, ptr %this1, i32 0, i32 4
  %8 = load i32, ptr %m_linkB13, align 4
  %call14 = call noundef nonnull align 8 dereferenceable(688) ptr @_ZN11btMultiBody7getLinkEi(ptr noundef nonnull align 8 dereferenceable(640) %7, i32 noundef %8)
  %m_collider = getelementptr inbounds %struct.btMultibodyLink, ptr %call14, i32 0, i32 22
  %9 = load ptr, ptr %m_collider, align 8
  %tobool15 = icmp ne ptr %9, null
  br i1 %tobool15, label %if.then16, label %if.end22

if.then16:                                        ; preds = %if.else
  %m_bodyB17 = getelementptr inbounds %class.btMultiBodyConstraint, ptr %this1, i32 0, i32 2
  %10 = load ptr, ptr %m_bodyB17, align 8
  %m_linkB18 = getelementptr inbounds %class.btMultiBodyConstraint, ptr %this1, i32 0, i32 4
  %11 = load i32, ptr %m_linkB18, align 4
  %call19 = call noundef nonnull align 8 dereferenceable(688) ptr @_ZN11btMultiBody7getLinkEi(ptr noundef nonnull align 8 dereferenceable(640) %10, i32 noundef %11)
  %m_collider20 = getelementptr inbounds %struct.btMultibodyLink, ptr %call19, i32 0, i32 22
  %12 = load ptr, ptr %m_collider20, align 8
  %call21 = call noundef i32 @_ZNK17btCollisionObject12getIslandTagEv(ptr noundef nonnull align 8 dereferenceable(372) %12)
  store i32 %call21, ptr %retval, align 4
  br label %return

if.end22:                                         ; preds = %if.else
  br label %if.end23

if.end23:                                         ; preds = %if.end22, %if.end11
  br label %if.end24

if.end24:                                         ; preds = %if.end23, %if.end
  store i32 -1, ptr %retval, align 4
  br label %return

return:                                           ; preds = %if.end24, %if.then16, %if.then9, %if.then
  %13 = load i32, ptr %retval, align 4
  ret i32 %13
}