; Function Attrs: mustprogress nofree norecurse nosync nounwind willreturn memory(read, inaccessiblemem: none) uwtable
define dso_local noundef i32 @_ZNK22btMultiBodyPoint2Point12getIslandIdBEv(ptr nocapture noundef nonnull readonly align 8 dereferenceable(144) %this) unnamed_addr #6 align 2 {
entry:
  %m_rigidBodyB = getelementptr inbounds i8, ptr %this, i64 104
  %0 = load ptr, ptr %m_rigidBodyB, align 8
  %tobool.not = icmp eq ptr %0, null
  br i1 %tobool.not, label %if.end, label %return.sink.split

if.end:                                           ; preds = %entry
  %m_bodyB = getelementptr inbounds i8, ptr %this, i64 16
  %1 = load ptr, ptr %m_bodyB, align 8
  %tobool3.not = icmp eq ptr %1, null
  br i1 %tobool3.not, label %return, label %if.then4

if.then4:                                         ; preds = %if.end
  %m_linkB = getelementptr inbounds i8, ptr %this, i64 28
  %2 = load i32, ptr %m_linkB, align 4
  %cmp = icmp slt i32 %2, 0
  br i1 %cmp, label %if.then5, label %if.else

if.then5:                                         ; preds = %if.then4
  %m_baseCollider.i = getelementptr inbounds i8, ptr %1, i64 8
  %3 = load ptr, ptr %m_baseCollider.i, align 8
  %tobool8.not = icmp eq ptr %3, null
  br i1 %tobool8.not, label %return, label %return.sink.split

if.else:                                          ; preds = %if.then4
  %m_data.i.i = getelementptr inbounds i8, ptr %1, i64 192
  %4 = load ptr, ptr %m_data.i.i, align 8
  %idxprom.i.i = zext nneg i32 %2 to i64
  %m_collider = getelementptr inbounds %struct.btMultibodyLink, ptr %4, i64 %idxprom.i.i, i32 22
  %5 = load ptr, ptr %m_collider, align 8
  %tobool15.not = icmp eq ptr %5, null
  br i1 %tobool15.not, label %return, label %return.sink.split

return.sink.split:                                ; preds = %if.else, %if.then5, %entry
  %.sink = phi ptr [ %0, %entry ], [ %3, %if.then5 ], [ %5, %if.else ]
  %m_islandTag1.i8 = getelementptr inbounds i8, ptr %.sink, i64 228
  %6 = load i32, ptr %m_islandTag1.i8, align 4
  br label %return

return:                                           ; preds = %return.sink.split, %if.end, %if.else, %if.then5
  %retval.0 = phi i32 [ -1, %if.then5 ], [ -1, %if.else ], [ -1, %if.end ], [ %6, %return.sink.split ]
  ret i32 %retval.0
}